target datalayout = "e-m:e-p270:32:32-p271:32:32-p272:64:64-i64:64-i128:128-f80:128-n8:16:32:64-S128"
target triple = "x86_64-pc-linux-gnu"

%struct.RangeBound = type { i64, i8, i8, i8 }
%struct.FunctionCallInfoBaseData = type { ptr, ptr, ptr, i32, i8, i16, [0 x %struct.NullableDatum] }
%struct.NullableDatum = type { i64, i8 }
%struct.FmgrInfo = type { ptr, i32, i16, i8, i8, i8, ptr, ptr, ptr }
%struct.TypeCacheEntry = type { i32, i32, i16, i8, i8, i8, i8, i32, i32, i32, i32, i32, i32, i32, i32, i32, i32, i32, i32, i32, i32, %struct.FmgrInfo, %struct.FmgrInfo, %struct.FmgrInfo, %struct.FmgrInfo, ptr, i64, ptr, i32, i32, %struct.FmgrInfo, %struct.FmgrInfo, %struct.FmgrInfo, ptr, i32, i32, ptr, i32, ptr, ptr }
%struct.RangeType = type { i32, i32 }

@.str.1 = private unnamed_addr constant [13 x i8] c"rangetypes.c\00", align 1
@.str.9 = private unnamed_addr constant [21 x i8] c"integer out of range\00", align 1
@__func__.int4range_canonical = private unnamed_addr constant [20 x i8] c"int4range_canonical\00", align 1
@.str.12 = private unnamed_addr constant [28 x i8] c"type %u is not a range type\00", align 1
@__func__.range_get_typcache = private unnamed_addr constant [19 x i8] c"range_get_typcache\00", align 1

; Function Attrs: inlinehint nounwind uwtable
define internal i64 @PointerGetDatum(ptr noundef %0) #2 {
  %2 = alloca ptr, align 8
  store ptr %0, ptr %2, align 8
  %3 = load ptr, ptr %2, align 8
  %4 = ptrtoint ptr %3 to i64
  ret i64 %4
}

; Function Attrs: inlinehint nounwind uwtable
define internal ptr @DatumGetPointer(i64 noundef %0) #2 {
  %2 = alloca i64, align 8
  store i64 %0, ptr %2, align 8
  %3 = load i64, ptr %2, align 8
  %4 = inttoptr i64 %3 to ptr
  ret ptr %4
}

; Function Attrs: inlinehint nounwind uwtable
define internal i64 @Int32GetDatum(i32 noundef %0) #2 {
  %2 = alloca i32, align 4
  store i32 %0, ptr %2, align 4
  %3 = load i32, ptr %2, align 4
  %4 = sext i32 %3 to i64
  ret i64 %4
}

; Function Attrs: inlinehint nounwind uwtable
define internal i32 @DatumGetInt32(i64 noundef %0) #2 {
  %2 = alloca i64, align 8
  store i64 %0, ptr %2, align 8
  %3 = load i64, ptr %2, align 8
  %4 = trunc i64 %3 to i32
  ret i32 %4
}

; Function Attrs: inlinehint nounwind uwtable
define internal i64 @RangeTypePGetDatum(ptr noundef %0) #2 {
  %2 = alloca ptr, align 8
  store ptr %0, ptr %2, align 8
  %3 = load ptr, ptr %2, align 8
  %4 = call i64 @PointerGetDatum(ptr noundef %3)
  ret i64 %4
}

; Function Attrs: nounwind uwtable
define dso_local ptr @range_get_typcache(ptr noundef %0, i32 noundef %1) #0 {
  %3 = alloca ptr, align 8
  %4 = alloca i32, align 4
  %5 = alloca ptr, align 8
  store ptr %0, ptr %3, align 8
  store i32 %1, ptr %4, align 4
  call void @llvm.lifetime.start.p0(i64 8, ptr %5) #10
  %6 = load ptr, ptr %3, align 8
  %7 = getelementptr inbounds nuw %struct.FunctionCallInfoBaseData, ptr %6, i32 0, i32 0
  %8 = load ptr, ptr %7, align 8
  %9 = getelementptr inbounds nuw %struct.FmgrInfo, ptr %8, i32 0, i32 6
  %10 = load ptr, ptr %9, align 8
  store ptr %10, ptr %5, align 8
  %11 = load ptr, ptr %5, align 8
  %12 = icmp eq ptr %11, null
  br i1 %12, label %19, label %13

13:                                               ; preds = %2
  %14 = load ptr, ptr %5, align 8
  %15 = getelementptr inbounds nuw %struct.TypeCacheEntry, ptr %14, i32 0, i32 0
  %16 = load i32, ptr %15, align 8
  %17 = load i32, ptr %4, align 4
  %18 = icmp ne i32 %16, %17
  br i1 %18, label %19, label %44

19:                                               ; preds = %13, %2
  %20 = load i32, ptr %4, align 4
  %21 = call ptr @lookup_type_cache(i32 noundef %20, i32 noundef 2048)
  store ptr %21, ptr %5, align 8
  %22 = load ptr, ptr %5, align 8
  %23 = getelementptr inbounds nuw %struct.TypeCacheEntry, ptr %22, i32 0, i32 27
  %24 = load ptr, ptr %23, align 8
  %25 = icmp eq ptr %24, null
  br i1 %25, label %26, label %38

26:                                               ; preds = %19
  br label %27

27:                                               ; preds = %26
  br i1 true, label %28, label %30

28:                                               ; preds = %27
  %29 = call zeroext i1 @errstart_cold(i32 noundef 21, ptr noundef null) #11
  br i1 %29, label %32, label %35

30:                                               ; preds = %27
  %31 = call zeroext i1 @errstart(i32 noundef 21, ptr noundef null)
  br i1 %31, label %32, label %35

32:                                               ; preds = %30, %28
  %33 = load i32, ptr %4, align 4
  %34 = call i32 (ptr, ...) @errmsg_internal(ptr noundef @.str.12, i32 noundef %33)
  call void @errfinish(ptr noundef @.str.1, i32 noundef 1712, ptr noundef @__func__.range_get_typcache)
  br label %35

35:                                               ; preds = %32, %30, %28
  unreachable

36:                                               ; No predecessors!
  br label %37

37:                                               ; preds = %36
  br label %38

38:                                               ; preds = %37, %19
  %39 = load ptr, ptr %5, align 8
  %40 = load ptr, ptr %3, align 8
  %41 = getelementptr inbounds nuw %struct.FunctionCallInfoBaseData, ptr %40, i32 0, i32 0
  %42 = load ptr, ptr %41, align 8
  %43 = getelementptr inbounds nuw %struct.FmgrInfo, ptr %42, i32 0, i32 6
  store ptr %39, ptr %43, align 8
  br label %44

44:                                               ; preds = %38, %13
  %45 = load ptr, ptr %5, align 8
  call void @llvm.lifetime.end.p0(i64 8, ptr %5) #10
  ret ptr %45
}

; Function Attrs: inlinehint nounwind uwtable
define internal ptr @DatumGetRangeTypeP(i64 noundef %0) #2 {
  %2 = alloca i64, align 8
  store i64 %0, ptr %2, align 8
  %3 = load i64, ptr %2, align 8
  %4 = call ptr @DatumGetPointer(i64 noundef %3)
  %5 = call ptr @pg_detoast_datum(ptr noundef %4)
  ret ptr %5
}

; Function Attrs: nounwind uwtable
define dso_local i64 @int4range_canonical(ptr noundef %0) #0 {
  %2 = alloca i64, align 8
  %3 = alloca ptr, align 8
  %4 = alloca ptr, align 8
  %5 = alloca ptr, align 8
  %6 = alloca ptr, align 8
  %7 = alloca %struct.RangeBound, align 8
  %8 = alloca %struct.RangeBound, align 8
  %9 = alloca i8, align 1
  %10 = alloca i32, align 4
  %11 = alloca i32, align 4
  %12 = alloca ptr, align 8
  %13 = alloca i32, align 4
  %14 = alloca ptr, align 8
  store ptr %0, ptr %3, align 8
  call void @llvm.lifetime.start.p0(i64 8, ptr %4) #10
  %15 = load ptr, ptr %3, align 8
  %16 = getelementptr inbounds nuw %struct.FunctionCallInfoBaseData, ptr %15, i32 0, i32 6
  %17 = getelementptr inbounds [0 x %struct.NullableDatum], ptr %16, i64 0, i64 0
  %18 = getelementptr inbounds nuw %struct.NullableDatum, ptr %17, i32 0, i32 0
  %19 = load i64, ptr %18, align 8
  %20 = call ptr @DatumGetRangeTypeP(i64 noundef %19)
  store ptr %20, ptr %4, align 8
  call void @llvm.lifetime.start.p0(i64 8, ptr %5) #10
  %21 = load ptr, ptr %3, align 8
  %22 = getelementptr inbounds nuw %struct.FunctionCallInfoBaseData, ptr %21, i32 0, i32 1
  %23 = load ptr, ptr %22, align 8
  store ptr %23, ptr %5, align 8
  call void @llvm.lifetime.start.p0(i64 8, ptr %6) #10
  call void @llvm.lifetime.start.p0(i64 16, ptr %7) #10
  call void @llvm.lifetime.start.p0(i64 16, ptr %8) #10
  call void @llvm.lifetime.start.p0(i64 1, ptr %9) #10
  %24 = load ptr, ptr %3, align 8
  %25 = load ptr, ptr %4, align 8
  %26 = getelementptr inbounds nuw %struct.RangeType, ptr %25, i32 0, i32 1
  %27 = load i32, ptr %26, align 4
  %28 = call ptr @range_get_typcache(ptr noundef %24, i32 noundef %27)
  store ptr %28, ptr %6, align 8
  %29 = load ptr, ptr %6, align 8
  %30 = load ptr, ptr %4, align 8
  call void @range_deserialize(ptr noundef %29, ptr noundef %30, ptr noundef %7, ptr noundef %8, ptr noundef %9)
  %31 = load i8, ptr %9, align 1, !range !7, !noundef !8
  %32 = trunc i8 %31 to i1
  br i1 %32, label %33, label %36

33:                                               ; preds = %1
  %34 = load ptr, ptr %4, align 8
  %35 = call i64 @RangeTypePGetDatum(ptr noundef %34)
  store i64 %35, ptr %2, align 8
  store i32 1, ptr %10, align 4
  br label %129

36:                                               ; preds = %1
  %37 = getelementptr inbounds nuw %struct.RangeBound, ptr %7, i32 0, i32 1
  %38 = load i8, ptr %37, align 8, !range !7, !noundef !8
  %39 = trunc i8 %38 to i1
  br i1 %39, label %80, label %40

40:                                               ; preds = %36
  %41 = getelementptr inbounds nuw %struct.RangeBound, ptr %7, i32 0, i32 2
  %42 = load i8, ptr %41, align 1, !range !7, !noundef !8
  %43 = trunc i8 %42 to i1
  br i1 %43, label %80, label %44

44:                                               ; preds = %40
  call void @llvm.lifetime.start.p0(i64 4, ptr %11) #10
  %45 = getelementptr inbounds nuw %struct.RangeBound, ptr %7, i32 0, i32 0
  %46 = load i64, ptr %45, align 8
  %47 = call i32 @DatumGetInt32(i64 noundef %46)
  store i32 %47, ptr %11, align 4
  %48 = load i32, ptr %11, align 4
  %49 = icmp eq i32 %48, 2147483647
  %50 = zext i1 %49 to i32
  %51 = icmp ne i32 %50, 0
  %52 = zext i1 %51 to i32
  %53 = sext i32 %52 to i64
  %54 = call i64 @llvm.expect.i64(i64 %53, i64 0)
  %55 = icmp ne i64 %54, 0
  br i1 %55, label %56, label %71

56:                                               ; preds = %44
  br label %57

57:                                               ; preds = %56
  br label %58

58:                                               ; preds = %57
  call void @llvm.lifetime.start.p0(i64 8, ptr %12) #10
  %59 = load ptr, ptr %5, align 8
  store ptr %59, ptr %12, align 8
  %60 = load ptr, ptr %12, align 8
  %61 = call zeroext i1 @errsave_start(ptr noundef %60, ptr noundef null)
  br i1 %61, label %62, label %66

62:                                               ; preds = %58
  %63 = call i32 @errcode(i32 noundef 50331778)
  %64 = call i32 (ptr, ...) @errmsg(ptr noundef @.str.9)
  %65 = load ptr, ptr %12, align 8
  call void @errsave_finish(ptr noundef %65, ptr noundef @.str.1, i32 noundef 1488, ptr noundef @__func__.int4range_canonical)
  br label %66

66:                                               ; preds = %62, %58
  call void @llvm.lifetime.end.p0(i64 8, ptr %12) #10
  br label %67

67:                                               ; preds = %66
  br label %68

68:                                               ; preds = %67
  store i64 0, ptr %2, align 8
  store i32 1, ptr %10, align 4
  br label %77

69:                                               ; No predecessors!
  br label %70

70:                                               ; preds = %69
  br label %71

71:                                               ; preds = %70, %44
  %72 = load i32, ptr %11, align 4
  %73 = add i32 %72, 1
  %74 = call i64 @Int32GetDatum(i32 noundef %73)
  %75 = getelementptr inbounds nuw %struct.RangeBound, ptr %7, i32 0, i32 0
  store i64 %74, ptr %75, align 8
  %76 = getelementptr inbounds nuw %struct.RangeBound, ptr %7, i32 0, i32 2
  store i8 1, ptr %76, align 1
  store i32 0, ptr %10, align 4
  br label %77

77:                                               ; preds = %71, %68
  call void @llvm.lifetime.end.p0(i64 4, ptr %11) #10
  %78 = load i32, ptr %10, align 4
  switch i32 %78, label %129 [
    i32 0, label %79
  ]

79:                                               ; preds = %77
  br label %80

80:                                               ; preds = %79, %40, %36
  %81 = getelementptr inbounds nuw %struct.RangeBound, ptr %8, i32 0, i32 1
  %82 = load i8, ptr %81, align 8, !range !7, !noundef !8
  %83 = trunc i8 %82 to i1
  br i1 %83, label %124, label %84

84:                                               ; preds = %80
  %85 = getelementptr inbounds nuw %struct.RangeBound, ptr %8, i32 0, i32 2
  %86 = load i8, ptr %85, align 1, !range !7, !noundef !8
  %87 = trunc i8 %86 to i1
  br i1 %87, label %88, label %124

88:                                               ; preds = %84
  call void @llvm.lifetime.start.p0(i64 4, ptr %13) #10
  %89 = getelementptr inbounds nuw %struct.RangeBound, ptr %8, i32 0, i32 0
  %90 = load i64, ptr %89, align 8
  %91 = call i32 @DatumGetInt32(i64 noundef %90)
  store i32 %91, ptr %13, align 4
  %92 = load i32, ptr %13, align 4
  %93 = icmp eq i32 %92, 2147483647
  %94 = zext i1 %93 to i32
  %95 = icmp ne i32 %94, 0
  %96 = zext i1 %95 to i32
  %97 = sext i32 %96 to i64
  %98 = call i64 @llvm.expect.i64(i64 %97, i64 0)
  %99 = icmp ne i64 %98, 0
  br i1 %99, label %100, label %115

100:                                              ; preds = %88
  br label %101

101:                                              ; preds = %100
  br label %102

102:                                              ; preds = %101
  call void @llvm.lifetime.start.p0(i64 8, ptr %14) #10
  %103 = load ptr, ptr %5, align 8
  store ptr %103, ptr %14, align 8
  %104 = load ptr, ptr %14, align 8
  %105 = call zeroext i1 @errsave_start(ptr noundef %104, ptr noundef null)
  br i1 %105, label %106, label %110

106:                                              ; preds = %102
  %107 = call i32 @errcode(i32 noundef 50331778)
  %108 = call i32 (ptr, ...) @errmsg(ptr noundef @.str.9)
  %109 = load ptr, ptr %14, align 8
  call void @errsave_finish(ptr noundef %109, ptr noundef @.str.1, i32 noundef 1501, ptr noundef @__func__.int4range_canonical)
  br label %110

110:                                              ; preds = %106, %102
  call void @llvm.lifetime.end.p0(i64 8, ptr %14) #10
  br label %111

111:                                              ; preds = %110
  br label %112

112:                                              ; preds = %111
  store i64 0, ptr %2, align 8
  store i32 1, ptr %10, align 4
  br label %121

113:                                              ; No predecessors!
  br label %114

114:                                              ; preds = %113
  br label %115

115:                                              ; preds = %114, %88
  %116 = load i32, ptr %13, align 4
  %117 = add i32 %116, 1
  %118 = call i64 @Int32GetDatum(i32 noundef %117)
  %119 = getelementptr inbounds nuw %struct.RangeBound, ptr %8, i32 0, i32 0
  store i64 %118, ptr %119, align 8
  %120 = getelementptr inbounds nuw %struct.RangeBound, ptr %8, i32 0, i32 2
  store i8 0, ptr %120, align 1
  store i32 0, ptr %10, align 4
  br label %121

121:                                              ; preds = %115, %112
  call void @llvm.lifetime.end.p0(i64 4, ptr %13) #10
  %122 = load i32, ptr %10, align 4
  switch i32 %122, label %129 [
    i32 0, label %123
  ]

123:                                              ; preds = %121
  br label %124

124:                                              ; preds = %123, %84, %80
  %125 = load ptr, ptr %6, align 8
  %126 = load ptr, ptr %5, align 8
  %127 = call ptr @range_serialize(ptr noundef %125, ptr noundef %7, ptr noundef %8, i1 noundef zeroext false, ptr noundef %126)
  %128 = call i64 @RangeTypePGetDatum(ptr noundef %127)
  store i64 %128, ptr %2, align 8
  store i32 1, ptr %10, align 4
  br label %129

129:                                              ; preds = %124, %121, %77, %33
  call void @llvm.lifetime.end.p0(i64 1, ptr %9) #10
  call void @llvm.lifetime.end.p0(i64 16, ptr %8) #10
  call void @llvm.lifetime.end.p0(i64 16, ptr %7) #10
  call void @llvm.lifetime.end.p0(i64 8, ptr %6) #10
  call void @llvm.lifetime.end.p0(i64 8, ptr %5) #10
  call void @llvm.lifetime.end.p0(i64 8, ptr %4) #10
  %130 = load i64, ptr %2, align 8
  ret i64 %130
}