; Function Attrs: nounwind uwtable
define dso_local i64 @int4range_canonical(ptr noundef readonly captures(none) %0) local_unnamed_addr #0 {
  %2 = alloca %struct.RangeBound, align 8
  %3 = alloca %struct.RangeBound, align 8
  %4 = alloca i8, align 1
  %5 = getelementptr inbounds nuw i8, ptr %0, i64 32
  %6 = load i64, ptr %5, align 8
  %7 = inttoptr i64 %6 to ptr
  %8 = tail call ptr @pg_detoast_datum(ptr noundef %7) #14
  %9 = getelementptr inbounds nuw i8, ptr %0, i64 8
  %10 = load ptr, ptr %9, align 8
  call void @llvm.lifetime.start.p0(i64 16, ptr nonnull %2) #14
  call void @llvm.lifetime.start.p0(i64 16, ptr nonnull %3) #14
  call void @llvm.lifetime.start.p0(i64 1, ptr nonnull %4) #14
  %11 = getelementptr inbounds nuw i8, ptr %8, i64 4
  %12 = load i32, ptr %11, align 4
  %13 = load ptr, ptr %0, align 8
  %14 = getelementptr inbounds nuw i8, ptr %13, i64 24
  %15 = load ptr, ptr %14, align 8
  %16 = icmp eq ptr %15, null
  br i1 %16, label %19, label %17

17:                                               ; preds = %1
  %18 = load i32, ptr %15, align 8
  %.not.i = icmp eq i32 %18, %12
  br i1 %.not.i, label %range_get_typcache.exit, label %19

19:                                               ; preds = %17, %1
  %20 = tail call ptr @lookup_type_cache(i32 noundef %12, i32 noundef 2048) #14
  %21 = getelementptr inbounds nuw i8, ptr %20, i64 280
  %22 = load ptr, ptr %21, align 8
  %23 = icmp eq ptr %22, null
  br i1 %23, label %24, label %27

24:                                               ; preds = %19
  %25 = tail call zeroext i1 @errstart_cold(i32 noundef 21, ptr noundef null) #16
  tail call void @llvm.assume(i1 %25)
  %26 = tail call i32 (ptr, ...) @errmsg_internal(ptr noundef nonnull @.str.12, i32 noundef %12) #14
  tail call void @errfinish(ptr noundef nonnull @.str.1, i32 noundef 1712, ptr noundef nonnull @__func__.range_get_typcache) #14
  unreachable

27:                                               ; preds = %19
  %28 = load ptr, ptr %0, align 8
  %29 = getelementptr inbounds nuw i8, ptr %28, i64 24
  store ptr %20, ptr %29, align 8
  br label %range_get_typcache.exit

range_get_typcache.exit:                          ; preds = %17, %27
  %.0.i = phi ptr [ %20, %27 ], [ %15, %17 ]
  call void @range_deserialize(ptr noundef nonnull %.0.i, ptr noundef nonnull %8, ptr noundef nonnull %2, ptr noundef nonnull %3, ptr noundef nonnull %4)
  %30 = load i8, ptr %4, align 1, !range !7, !noundef !8
  %31 = trunc nuw i8 %30 to i1
  br i1 %31, label %32, label %34

32:                                               ; preds = %range_get_typcache.exit
  %33 = ptrtoint ptr %8 to i64
  br label %.thread

34:                                               ; preds = %range_get_typcache.exit
  %35 = getelementptr inbounds nuw i8, ptr %2, i64 8
  %36 = load i8, ptr %35, align 8, !range !7, !noundef !8
  %37 = trunc nuw i8 %36 to i1
  br i1 %37, label %53, label %38

38:                                               ; preds = %34
  %39 = getelementptr inbounds nuw i8, ptr %2, i64 9
  %40 = load i8, ptr %39, align 1, !range !7, !noundef !8
  %41 = trunc nuw i8 %40 to i1
  br i1 %41, label %53, label %42

42:                                               ; preds = %38
  %43 = load i64, ptr %2, align 8
  %44 = and i64 %43, 4294967295
  %.not = icmp eq i64 %44, 2147483647
  br i1 %.not, label %45, label %50, !prof !19

45:                                               ; preds = %42
  %46 = tail call zeroext i1 @errsave_start(ptr noundef %10, ptr noundef null) #14
  br i1 %46, label %47, label %.thread

47:                                               ; preds = %45
  %48 = tail call i32 @errcode(i32 noundef 50331778) #14
  %49 = tail call i32 (ptr, ...) @errmsg(ptr noundef nonnull @.str.9) #14
  tail call void @errsave_finish(ptr noundef %10, ptr noundef nonnull @.str.1, i32 noundef 1488, ptr noundef nonnull @__func__.int4range_canonical) #14
  br label %.thread

50:                                               ; preds = %42
  %51 = shl i64 %43, 32
  %sext = add i64 %51, 4294967296
  %52 = ashr exact i64 %sext, 32
  store i64 %52, ptr %2, align 8
  store i8 1, ptr %39, align 1
  br label %53

53:                                               ; preds = %50, %38, %34
  %54 = getelementptr inbounds nuw i8, ptr %3, i64 8
  %55 = load i8, ptr %54, align 8, !range !7, !noundef !8
  %56 = trunc nuw i8 %55 to i1
  br i1 %56, label %72, label %57

57:                                               ; preds = %53
  %58 = getelementptr inbounds nuw i8, ptr %3, i64 9
  %59 = load i8, ptr %58, align 1, !range !7, !noundef !8
  %60 = trunc nuw i8 %59 to i1
  br i1 %60, label %61, label %72

61:                                               ; preds = %57
  %62 = load i64, ptr %3, align 8
  %63 = and i64 %62, 4294967295
  %.not26 = icmp eq i64 %63, 2147483647
  br i1 %.not26, label %64, label %69, !prof !19

64:                                               ; preds = %61
  %65 = tail call zeroext i1 @errsave_start(ptr noundef %10, ptr noundef null) #14
  br i1 %65, label %66, label %.thread

66:                                               ; preds = %64
  %67 = tail call i32 @errcode(i32 noundef 50331778) #14
  %68 = tail call i32 (ptr, ...) @errmsg(ptr noundef nonnull @.str.9) #14
  tail call void @errsave_finish(ptr noundef %10, ptr noundef nonnull @.str.1, i32 noundef 1501, ptr noundef nonnull @__func__.int4range_canonical) #14
  br label %.thread

69:                                               ; preds = %61
  %70 = shl i64 %62, 32
  %sext29 = add i64 %70, 4294967296
  %71 = ashr exact i64 %sext29, 32
  store i64 %71, ptr %3, align 8
  store i8 0, ptr %58, align 1
  br label %72

72:                                               ; preds = %69, %57, %53
  %73 = call ptr @range_serialize(ptr noundef nonnull %.0.i, ptr noundef nonnull %2, ptr noundef nonnull %3, i1 noundef zeroext false, ptr noundef %10)
  %74 = ptrtoint ptr %73 to i64
  br label %.thread

.thread:                                          ; preds = %66, %64, %47, %45, %72, %32
  %.0 = phi i64 [ %33, %32 ], [ %74, %72 ], [ 0, %45 ], [ 0, %47 ], [ 0, %64 ], [ 0, %66 ]
  call void @llvm.lifetime.end.p0(i64 1, ptr nonnull %4) #14
  call void @llvm.lifetime.end.p0(i64 16, ptr nonnull %3) #14
  call void @llvm.lifetime.end.p0(i64 16, ptr nonnull %2) #14
  ret i64 %.0
}